target datalayout = "e-m:e-p270:32:32-p271:32:32-p272:64:64-i64:64-i128:128-f80:128-n8:16:32:64-S128"
target triple = "x86_64-pc-linux-gnu"

%struct._zend_phpdbg_globals = type { [11 x %struct._zend_array], %struct._zend_array, %struct._zend_array, ptr, ptr, %struct.phpdbg_frame_t, i32, ptr, %struct.phpdbg_lexer_data, ptr, %struct.sigaction, i32, i64, %struct.phpdbg_btree, %struct.phpdbg_btree, %struct._zend_array, %struct._zend_array, %struct._zend_array, %struct._zend_array, ptr, ptr, i8, ptr, ptr, ptr, i64, ptr, %struct._zval_struct, i32, i32, i8, i8, ptr, ptr, ptr, %struct._zend_array, ptr, ptr, ptr, [3 x %struct.anon.8], ptr, %struct.anon.9, i64, [2 x ptr], [3 x ptr], ptr, i8, ptr, ptr, [500 x i8], i32, %struct.phpdbg_signal_safe_mem, ptr, i64, ptr, i64 }
%struct.phpdbg_frame_t = type { i32, ptr, ptr }
%struct.phpdbg_lexer_data = type { i32, ptr, ptr, ptr, ptr, i32 }
%struct.sigaction = type { %union.anon.2, %struct.__sigset_t, i32, ptr }
%union.anon.2 = type { ptr }
%struct.__sigset_t = type { [16 x i64] }
%struct.phpdbg_btree = type { i64, i64, i8, ptr }
%struct._zval_struct = type { %union._zend_value, %union.anon.4, %union.anon.7 }
%union._zend_value = type { i64 }
%union.anon.4 = type { i32 }
%union.anon.7 = type { i32 }
%struct._zend_array = type { %struct._zend_refcounted_h, %union.anon.0, i32, %union.anon.1, i32, i32, i32, i32, i64, ptr }
%struct._zend_refcounted_h = type { i32, %union.anon }
%union.anon = type { i32 }
%union.anon.0 = type { i32 }
%union.anon.1 = type { ptr }
%struct.anon.8 = type { i32 }
%struct.anon.9 = type { i8, i32, i32, ptr, i32 }
%struct.phpdbg_signal_safe_mem = type { ptr, i8, ptr, ptr }
%struct._zend_op_array = type { i8, [3 x i8], i32, ptr, ptr, ptr, i32, i32, ptr, ptr, ptr, ptr, i32, i32, i32, i32, ptr, ptr, ptr, ptr, ptr, i32, i32, ptr, ptr, ptr, i32, i32, i32, i32, ptr, ptr, [6 x ptr] }
%struct._phpdbg_param = type { i32, i64, i64, %struct.anon.10, %struct.anon.11, ptr, i64, ptr, ptr }
%struct.anon.10 = type { ptr, i64 }
%struct.anon.11 = type { ptr, ptr }
%struct._zend_string = type { %struct._zend_refcounted_h, i64, i64, [1 x i8] }
%struct._zend_class_entry = type { i8, ptr, %union.anon.12, i32, i32, i32, i32, ptr, ptr, ptr, %struct._zend_array, %struct._zend_array, %struct._zend_array, ptr, ptr, ptr, ptr, ptr, ptr, ptr, ptr, ptr, ptr, ptr, ptr, ptr, ptr, ptr, ptr, ptr, ptr, ptr, %union.anon.13, ptr, ptr, ptr, ptr, i32, i32, %union.anon.14, ptr, ptr, ptr, ptr, i32, ptr, ptr, %union.anon.15 }
%union.anon.12 = type { ptr }
%union.anon.13 = type { ptr }
%union.anon.14 = type { ptr }
%union.anon.15 = type { %struct.anon.16 }
%struct.anon.16 = type { ptr, i32, i32 }
%struct.anon.18 = type { i8, [3 x i8], i32, ptr, ptr, ptr, i32, i32, ptr, ptr, ptr, ptr, i32 }

@phpdbg_globals = external global %struct._zend_phpdbg_globals, align 8
@.str.13 = private unnamed_addr constant [22 x i8] c"Could not find %s::%s\00", align 1
@.str.14 = private unnamed_addr constant [28 x i8] c"Could not find the class %s\00", align 1
@.str.22 = private unnamed_addr constant [48 x i8] c"The function requested (%s) is not user defined\00", align 1

; Function Attrs: nounwind uwtable
define hidden void @phpdbg_list_function(ptr noundef %0) #0 {
  %2 = alloca ptr, align 8
  %3 = alloca ptr, align 8
  store ptr %0, ptr %2, align 8
  %4 = load ptr, ptr %2, align 8
  %5 = load i8, ptr %4, align 8
  %6 = zext i8 %5 to i32
  %7 = icmp ne i32 %6, 2
  br i1 %7, label %8, label %16

8:                                                ; preds = %1
  %9 = load i32, ptr getelementptr inbounds (%struct._zend_phpdbg_globals, ptr @phpdbg_globals, i32 0, i32 39, i64 1), align 4
  %10 = load ptr, ptr %2, align 8
  %11 = getelementptr inbounds %struct.anon.18, ptr %10, i32 0, i32 3
  %12 = load ptr, ptr %11, align 8
  %13 = getelementptr inbounds %struct._zend_string, ptr %12, i32 0, i32 3
  %14 = getelementptr inbounds [1 x i8], ptr %13, i64 0, i64 0
  %15 = call i32 (i32, i32, ptr, ...) @phpdbg_print(i32 noundef 1, i32 noundef %9, ptr noundef @.str.22, ptr noundef %14)
  br label %32

16:                                               ; preds = %1
  %17 = load ptr, ptr %2, align 8
  store ptr %17, ptr %3, align 8
  %18 = load ptr, ptr %3, align 8
  %19 = getelementptr inbounds %struct._zend_op_array, ptr %18, i32 0, i32 25
  %20 = load ptr, ptr %19, align 8
  %21 = load ptr, ptr %3, align 8
  %22 = getelementptr inbounds %struct._zend_op_array, ptr %21, i32 0, i32 27
  %23 = load i32, ptr %22, align 4
  %24 = load ptr, ptr %3, align 8
  %25 = getelementptr inbounds %struct._zend_op_array, ptr %24, i32 0, i32 26
  %26 = load i32, ptr %25, align 8
  %27 = sub i32 %23, %26
  %28 = add i32 %27, 1
  %29 = load ptr, ptr %3, align 8
  %30 = getelementptr inbounds %struct._zend_op_array, ptr %29, i32 0, i32 26
  %31 = load i32, ptr %30, align 8
  call void @phpdbg_list_file(ptr noundef %20, i32 noundef %28, i32 noundef %31, i32 noundef 0)
  br label %32

32:                                               ; preds = %16, %8
  ret void
}

; Function Attrs: nounwind uwtable
define hidden i32 @phpdbg_do_list_method(ptr noundef %0) #0 {
  %2 = alloca ptr, align 8
  %3 = alloca ptr, align 8
  %4 = alloca ptr, align 8
  %5 = alloca i64, align 8
  %6 = alloca ptr, align 8
  %7 = alloca ptr, align 8
  %8 = alloca ptr, align 8
  %9 = alloca ptr, align 8
  %10 = alloca ptr, align 8
  store ptr %0, ptr %7, align 8
  %11 = load ptr, ptr %7, align 8
  %12 = getelementptr inbounds %struct._phpdbg_param, ptr %11, i32 0, i32 4
  %13 = getelementptr inbounds %struct.anon.11, ptr %12, i32 0, i32 0
  %14 = load ptr, ptr %13, align 8
  %15 = load ptr, ptr %7, align 8
  %16 = getelementptr inbounds %struct._phpdbg_param, ptr %15, i32 0, i32 4
  %17 = getelementptr inbounds %struct.anon.11, ptr %16, i32 0, i32 0
  %18 = load ptr, ptr %17, align 8
  %19 = call i64 @strlen(ptr noundef %18) #10
  %20 = trunc i64 %19 to i32
  %21 = call i32 @phpdbg_safe_class_lookup(ptr noundef %14, i32 noundef %20, ptr noundef %8)
  %22 = icmp eq i32 %21, 0
  br i1 %22, label %23, label %70

23:                                               ; preds = %1
  %24 = load ptr, ptr %7, align 8
  %25 = getelementptr inbounds %struct._phpdbg_param, ptr %24, i32 0, i32 4
  %26 = getelementptr inbounds %struct.anon.11, ptr %25, i32 0, i32 1
  %27 = load ptr, ptr %26, align 8
  %28 = load ptr, ptr %7, align 8
  %29 = getelementptr inbounds %struct._phpdbg_param, ptr %28, i32 0, i32 4
  %30 = getelementptr inbounds %struct.anon.11, ptr %29, i32 0, i32 1
  %31 = load ptr, ptr %30, align 8
  %32 = call i64 @strlen(ptr noundef %31) #10
  %33 = call ptr @zend_str_tolower_dup(ptr noundef %27, i64 noundef %32)
  store ptr %33, ptr %10, align 8
  %34 = load ptr, ptr %8, align 8
  %35 = getelementptr inbounds %struct._zend_class_entry, ptr %34, i32 0, i32 10
  %36 = load ptr, ptr %10, align 8
  %37 = load ptr, ptr %10, align 8
  %38 = call i64 @strlen(ptr noundef %37) #10
  store ptr %35, ptr %3, align 8
  store ptr %36, ptr %4, align 8
  store i64 %38, ptr %5, align 8
  %39 = load ptr, ptr %3, align 8
  %40 = load ptr, ptr %4, align 8
  %41 = load i64, ptr %5, align 8
  %42 = call ptr @zend_hash_str_find(ptr noundef %39, ptr noundef %40, i64 noundef %41) #12
  store ptr %42, ptr %6, align 8
  %43 = load ptr, ptr %6, align 8
  %44 = icmp ne ptr %43, null
  br i1 %44, label %45, label %51

45:                                               ; preds = %23
  %46 = load ptr, ptr %6, align 8
  %47 = load ptr, ptr %46, align 8
  %48 = icmp ne ptr %47, null
  call void @llvm.assume(i1 %48)
  %49 = load ptr, ptr %6, align 8
  %50 = load ptr, ptr %49, align 8
  store ptr %50, ptr %2, align 8
  br label %52

51:                                               ; preds = %23
  store ptr null, ptr %2, align 8
  br label %52

52:                                               ; preds = %51, %45
  %53 = load ptr, ptr %2, align 8
  store ptr %53, ptr %9, align 8
  %54 = icmp ne ptr %53, null
  br i1 %54, label %55, label %57

55:                                               ; preds = %52
  %56 = load ptr, ptr %9, align 8
  call void @phpdbg_list_function(ptr noundef %56)
  br label %68

57:                                               ; preds = %52
  %58 = load i32, ptr getelementptr inbounds (%struct._zend_phpdbg_globals, ptr @phpdbg_globals, i32 0, i32 39, i64 1), align 4
  %59 = load ptr, ptr %7, align 8
  %60 = getelementptr inbounds %struct._phpdbg_param, ptr %59, i32 0, i32 4
  %61 = getelementptr inbounds %struct.anon.11, ptr %60, i32 0, i32 0
  %62 = load ptr, ptr %61, align 8
  %63 = load ptr, ptr %7, align 8
  %64 = getelementptr inbounds %struct._phpdbg_param, ptr %63, i32 0, i32 4
  %65 = getelementptr inbounds %struct.anon.11, ptr %64, i32 0, i32 1
  %66 = load ptr, ptr %65, align 8
  %67 = call i32 (i32, i32, ptr, ...) @phpdbg_print(i32 noundef 1, i32 noundef %58, ptr noundef @.str.13, ptr noundef %62, ptr noundef %66)
  br label %68

68:                                               ; preds = %57, %55
  %69 = load ptr, ptr %10, align 8
  call void @_efree(ptr noundef %69)
  br label %77

70:                                               ; preds = %1
  %71 = load i32, ptr getelementptr inbounds (%struct._zend_phpdbg_globals, ptr @phpdbg_globals, i32 0, i32 39, i64 1), align 4
  %72 = load ptr, ptr %7, align 8
  %73 = getelementptr inbounds %struct._phpdbg_param, ptr %72, i32 0, i32 4
  %74 = getelementptr inbounds %struct.anon.11, ptr %73, i32 0, i32 0
  %75 = load ptr, ptr %74, align 8
  %76 = call i32 (i32, i32, ptr, ...) @phpdbg_print(i32 noundef 1, i32 noundef %71, ptr noundef @.str.14, ptr noundef %75)
  br label %77

77:                                               ; preds = %70, %68
  ret i32 0
}