; Function Attrs: nounwind uwtable
define hidden noundef i32 @phpdbg_do_list_method(ptr nocapture noundef readonly %0) #0 {
  %2 = alloca ptr, align 8
  %3 = getelementptr inbounds i8, ptr %0, i64 40
  %4 = load ptr, ptr %3, align 8
  %5 = tail call i64 @strlen(ptr noundef nonnull dereferenceable(1) %4) #12
  %6 = trunc i64 %5 to i32
  %7 = call i32 @phpdbg_safe_class_lookup(ptr noundef %4, i32 noundef %6, ptr noundef nonnull %2) #11
  %8 = icmp eq i32 %7, 0
  br i1 %8, label %9, label %41

9:                                                ; preds = %1
  %10 = getelementptr inbounds i8, ptr %0, i64 48
  %11 = load ptr, ptr %10, align 8
  %12 = call i64 @strlen(ptr noundef nonnull dereferenceable(1) %11) #12
  %13 = call ptr @zend_str_tolower_dup(ptr noundef %11, i64 noundef %12) #11
  %14 = load ptr, ptr %2, align 8
  %15 = getelementptr inbounds i8, ptr %14, i64 64
  %16 = call i64 @strlen(ptr noundef nonnull dereferenceable(1) %13) #12
  %17 = call ptr @zend_hash_str_find(ptr noundef nonnull %15, ptr noundef %13, i64 noundef %16) #11
  %.not = icmp eq ptr %17, null
  br i1 %.not, label %36, label %18

18:                                               ; preds = %9
  %19 = load ptr, ptr %17, align 8, !nonnull !4, !noundef !4
  %20 = load i8, ptr %19, align 8
  %.not.i = icmp eq i8 %20, 2
  br i1 %.not.i, label %27, label %21

21:                                               ; preds = %18
  %22 = load i32, ptr getelementptr inbounds (%struct._zend_phpdbg_globals, ptr @phpdbg_globals, i64 0, i32 39, i64 1), align 4
  %23 = getelementptr inbounds i8, ptr %19, i64 8
  %24 = load ptr, ptr %23, align 8
  %25 = getelementptr inbounds i8, ptr %24, i64 24
  %26 = call i32 (i32, i32, ptr, ...) @phpdbg_print(i32 noundef 1, i32 noundef %22, ptr noundef nonnull @.str.22, ptr noundef nonnull %25) #11
  br label %phpdbg_list_function.exit

27:                                               ; preds = %18
  %28 = getelementptr inbounds i8, ptr %19, i64 152
  %29 = load ptr, ptr %28, align 8
  %30 = getelementptr inbounds i8, ptr %19, i64 164
  %31 = load i32, ptr %30, align 4
  %32 = getelementptr inbounds i8, ptr %19, i64 160
  %33 = load i32, ptr %32, align 8
  %34 = add i32 %31, 1
  %35 = sub i32 %34, %33
  call void @phpdbg_list_file(ptr noundef %29, i32 noundef %35, i32 noundef %33, i32 noundef 0)
  br label %phpdbg_list_function.exit

36:                                               ; preds = %9
  %37 = load i32, ptr getelementptr inbounds (%struct._zend_phpdbg_globals, ptr @phpdbg_globals, i64 0, i32 39, i64 1), align 4
  %38 = load ptr, ptr %3, align 8
  %39 = load ptr, ptr %10, align 8
  %40 = call i32 (i32, i32, ptr, ...) @phpdbg_print(i32 noundef 1, i32 noundef %37, ptr noundef nonnull @.str.13, ptr noundef %38, ptr noundef %39) #11
  br label %phpdbg_list_function.exit

phpdbg_list_function.exit:                        ; preds = %27, %21, %36
  call void @_efree(ptr noundef %13) #11
  br label %45

41:                                               ; preds = %1
  %42 = load i32, ptr getelementptr inbounds (%struct._zend_phpdbg_globals, ptr @phpdbg_globals, i64 0, i32 39, i64 1), align 4
  %43 = load ptr, ptr %3, align 8
  %44 = call i32 (i32, i32, ptr, ...) @phpdbg_print(i32 noundef 1, i32 noundef %42, ptr noundef nonnull @.str.14, ptr noundef %43) #11
  br label %45

45:                                               ; preds = %41, %phpdbg_list_function.exit
  ret i32 0
}